; Function Attrs: mustprogress uwtable
define noundef ptr @Z3_mk_config() local_unnamed_addr #3 personality ptr @__gxx_personality_v0 {
entry:
  invoke void @_ZN6memory10initializeEm(i64 noundef 4294967295)
          to label %invoke.cont unwind label %lpad

invoke.cont:                                      ; preds = %entry
  %0 = atomicrmw xchg ptr @g_z3_log_enabled, i8 0 seq_cst, align 1
  %1 = and i8 %0, 1
  %tobool.i.not = icmp eq i8 %1, 0
  br i1 %tobool.i.not, label %if.end, label %if.then

if.then:                                          ; preds = %invoke.cont
  invoke void @_Z16log_Z3_mk_configv()
          to label %if.end unwind label %lpad2.thread

lpad:                                             ; preds = %entry
  %2 = landingpad { ptr, i32 }
          catch ptr @_ZTI12z3_exception
  br label %catch.dispatch

lpad2.thread:                                     ; preds = %if.then10, %if.then
  %lpad.thr_comm = landingpad { ptr, i32 }
          cleanup
          catch ptr @_ZTI12z3_exception
  br label %if.then.i

lpad2:                                            ; preds = %invoke.cont5, %if.end
  %lpad.thr_comm.split-lp = landingpad { ptr, i32 }
          cleanup
          catch ptr @_ZTI12z3_exception
  br i1 %tobool.i.not, label %catch.dispatch, label %if.then.i

if.then.i:                                        ; preds = %lpad2.thread, %lpad2
  %lpad.phi13 = phi { ptr, i32 } [ %lpad.thr_comm, %lpad2.thread ], [ %lpad.thr_comm.split-lp, %lpad2 ]
  store atomic i8 1, ptr @g_z3_log_enabled seq_cst, align 1
  br label %catch.dispatch

catch.dispatch:                                   ; preds = %if.then.i, %lpad2, %lpad
  %.pn = phi { ptr, i32 } [ %2, %lpad ], [ %lpad.thr_comm.split-lp, %lpad2 ], [ %lpad.phi13, %if.then.i ]
  %ehselector.slot.0 = extractvalue { ptr, i32 } %.pn, 1
  %3 = tail call i32 @llvm.eh.typeid.for(ptr nonnull @_ZTI12z3_exception) #10
  %matches = icmp eq i32 %ehselector.slot.0, %3
  br i1 %matches, label %catch, label %eh.resume

catch:                                            ; preds = %catch.dispatch
  %exn.slot.0 = extractvalue { ptr, i32 } %.pn, 0
  %4 = tail call ptr @__cxa_begin_catch(ptr %exn.slot.0) #10
  %vtable = load ptr, ptr %4, align 8
  %vfn = getelementptr inbounds i8, ptr %vtable, i64 16
  %5 = load ptr, ptr %vfn, align 8
  %call15 = invoke noundef ptr %5(ptr noundef nonnull align 8 dereferenceable(8) %4)
          to label %invoke.cont14 unwind label %lpad13

invoke.cont14:                                    ; preds = %catch
  invoke void (ptr, ...) @_Z11warning_msgPKcz(ptr noundef nonnull @.str, ptr noundef %call15)
          to label %invoke.cont16 unwind label %lpad13

invoke.cont16:                                    ; preds = %invoke.cont14
  tail call void @__cxa_end_catch()
  br label %return

if.end:                                           ; preds = %if.then, %invoke.cont
  %call6 = invoke noalias noundef ptr @_ZN6memory8allocateEm(i64 noundef 128)
          to label %invoke.cont5 unwind label %lpad2

invoke.cont5:                                     ; preds = %if.end
  tail call void @llvm.memset.p0.i64(ptr noundef nonnull align 8 dereferenceable(128) %call6, i8 0, i64 128, i1 false)
  invoke void @_ZN14context_paramsC2Ev(ptr noundef nonnull align 8 dereferenceable(120) %call6)
          to label %invoke.cont7 unwind label %lpad2

invoke.cont7:                                     ; preds = %invoke.cont5
  %m_manager.i = getelementptr inbounds i8, ptr %call6, i64 120
  store ptr null, ptr %m_manager.i, align 8
  br i1 %tobool.i.not, label %return, label %if.then10

if.then10:                                        ; preds = %invoke.cont7
  invoke void @_Z4SetRPv(ptr noundef nonnull %call6)
          to label %if.then.i6 unwind label %lpad2.thread

if.then.i6:                                       ; preds = %if.then10
  store atomic i8 1, ptr @g_z3_log_enabled seq_cst, align 1
  br label %return

lpad13:                                           ; preds = %invoke.cont14, %catch
  %6 = landingpad { ptr, i32 }
          cleanup
  invoke void @__cxa_end_catch()
          to label %eh.resume unwind label %terminate.lpad

return:                                           ; preds = %invoke.cont7, %if.then.i6, %invoke.cont16
  %retval.0 = phi ptr [ null, %invoke.cont16 ], [ %call6, %if.then.i6 ], [ %call6, %invoke.cont7 ]
  ret ptr %retval.0

eh.resume:                                        ; preds = %lpad13, %catch.dispatch
  %lpad.val21.merged = phi { ptr, i32 } [ %6, %lpad13 ], [ %.pn, %catch.dispatch ]
  resume { ptr, i32 } %lpad.val21.merged

terminate.lpad:                                   ; preds = %lpad13
  %7 = landingpad { ptr, i32 }
          catch ptr null
  %8 = extractvalue { ptr, i32 } %7, 0
  tail call void @__clang_call_terminate(ptr %8) #11
  unreachable
}